target datalayout = "e-m:e-p270:32:32-p271:32:32-p272:64:64-i64:64-i128:128-f80:128-n8:16:32:64-S128"
target triple = "x86_64-pc-linux-gnu"

%struct.StringStruct = type { [3 x i8], %"struct.std::array" }
%"struct.std::array" = type { [3 x i8] }

@.str.6 = private unnamed_addr constant [4 x i8] c"a='\00", align 1
@.str.7 = private unnamed_addr constant [6 x i8] c"',b='\00", align 1
@.str.8 = private unnamed_addr constant [2 x i8] c"'\00", align 1

; Function Attrs: mustprogress nounwind uwtable
define linkonce_odr noundef nonnull align 1 dereferenceable(1) ptr @_ZNSt14__array_traitsIcLm3EE6_S_refERA3_Kcm(ptr noundef nonnull align 1 dereferenceable(3) %0, i64 noundef %1) #0 comdat align 2 {
  %3 = alloca ptr, align 8
  %4 = alloca i64, align 8
  store ptr %0, ptr %3, align 8
  store i64 %1, ptr %4, align 8
  %5 = load ptr, ptr %3, align 8
  %6 = load i64, ptr %4, align 8
  %7 = getelementptr inbounds [3 x i8], ptr %5, i64 0, i64 %6
  ret ptr %7
}

; Function Attrs: mustprogress nounwind uwtable
define linkonce_odr noundef nonnull align 1 dereferenceable(1) ptr @_ZNKSt5arrayIcLm3EEixEm(ptr noundef nonnull align 1 dereferenceable(3) %0, i64 noundef %1) #0 comdat align 2 {
  %3 = alloca ptr, align 8
  %4 = alloca i64, align 8
  store ptr %0, ptr %3, align 8
  store i64 %1, ptr %4, align 8
  %5 = load ptr, ptr %3, align 8
  %6 = getelementptr inbounds %"struct.std::array", ptr %5, i32 0, i32 0
  %7 = load i64, ptr %4, align 8
  %8 = call noundef nonnull align 1 dereferenceable(1) ptr @_ZNSt14__array_traitsIcLm3EE6_S_refERA3_Kcm(ptr noundef nonnull align 1 dereferenceable(3) %6, i64 noundef %7) #16
  ret ptr %8
}

; Function Attrs: mustprogress uwtable
define hidden noundef nonnull align 8 dereferenceable(8) ptr @_ZlsRSoRK12StringStruct(ptr noundef nonnull align 8 dereferenceable(8) %0, ptr noundef nonnull align 1 dereferenceable(6) %1) #1 {
  %3 = alloca ptr, align 8
  %4 = alloca ptr, align 8
  %5 = alloca i64, align 8
  %6 = alloca i64, align 8
  store ptr %0, ptr %3, align 8
  store ptr %1, ptr %4, align 8
  %7 = load ptr, ptr %3, align 8
  %8 = call noundef nonnull align 8 dereferenceable(8) ptr @_ZStlsISt11char_traitsIcEERSt13basic_ostreamIcT_ES5_PKc(ptr noundef nonnull align 8 dereferenceable(8) %7, ptr noundef @.str.6)
  store i64 0, ptr %5, align 8
  br label %9

9:                                                ; preds = %30, %2
  %10 = load i64, ptr %5, align 8
  %11 = icmp ult i64 %10, 3
  br i1 %11, label %12, label %20

12:                                               ; preds = %9
  %13 = load ptr, ptr %4, align 8
  %14 = getelementptr inbounds %struct.StringStruct, ptr %13, i32 0, i32 0
  %15 = load i64, ptr %5, align 8
  %16 = getelementptr inbounds [3 x i8], ptr %14, i64 0, i64 %15
  %17 = load i8, ptr %16, align 1
  %18 = sext i8 %17 to i32
  %19 = icmp ne i32 %18, 0
  br label %20

20:                                               ; preds = %12, %9
  %21 = phi i1 [ false, %9 ], [ %19, %12 ]
  br i1 %21, label %22, label %33

22:                                               ; preds = %20
  %23 = load ptr, ptr %3, align 8
  %24 = load ptr, ptr %4, align 8
  %25 = getelementptr inbounds %struct.StringStruct, ptr %24, i32 0, i32 0
  %26 = load i64, ptr %5, align 8
  %27 = getelementptr inbounds [3 x i8], ptr %25, i64 0, i64 %26
  %28 = load i8, ptr %27, align 1
  %29 = call noundef nonnull align 8 dereferenceable(8) ptr @_ZStlsISt11char_traitsIcEERSt13basic_ostreamIcT_ES5_c(ptr noundef nonnull align 8 dereferenceable(8) %23, i8 noundef signext %28)
  br label %30

30:                                               ; preds = %22
  %31 = load i64, ptr %5, align 8
  %32 = add i64 %31, 1
  store i64 %32, ptr %5, align 8
  br label %9, !llvm.loop !4

33:                                               ; preds = %20
  %34 = load ptr, ptr %3, align 8
  %35 = call noundef nonnull align 8 dereferenceable(8) ptr @_ZStlsISt11char_traitsIcEERSt13basic_ostreamIcT_ES5_PKc(ptr noundef nonnull align 8 dereferenceable(8) %34, ptr noundef @.str.7)
  store i64 0, ptr %6, align 8
  br label %36

36:                                               ; preds = %57, %33
  %37 = load i64, ptr %6, align 8
  %38 = icmp ult i64 %37, 3
  br i1 %38, label %39, label %47

39:                                               ; preds = %36
  %40 = load ptr, ptr %4, align 8
  %41 = getelementptr inbounds %struct.StringStruct, ptr %40, i32 0, i32 1
  %42 = load i64, ptr %6, align 8
  %43 = call noundef nonnull align 1 dereferenceable(1) ptr @_ZNKSt5arrayIcLm3EEixEm(ptr noundef nonnull align 1 dereferenceable(3) %41, i64 noundef %42) #16
  %44 = load i8, ptr %43, align 1
  %45 = sext i8 %44 to i32
  %46 = icmp ne i32 %45, 0
  br label %47

47:                                               ; preds = %39, %36
  %48 = phi i1 [ false, %36 ], [ %46, %39 ]
  br i1 %48, label %49, label %60

49:                                               ; preds = %47
  %50 = load ptr, ptr %3, align 8
  %51 = load ptr, ptr %4, align 8
  %52 = getelementptr inbounds %struct.StringStruct, ptr %51, i32 0, i32 1
  %53 = load i64, ptr %6, align 8
  %54 = call noundef nonnull align 1 dereferenceable(1) ptr @_ZNKSt5arrayIcLm3EEixEm(ptr noundef nonnull align 1 dereferenceable(3) %52, i64 noundef %53) #16
  %55 = load i8, ptr %54, align 1
  %56 = call noundef nonnull align 8 dereferenceable(8) ptr @_ZStlsISt11char_traitsIcEERSt13basic_ostreamIcT_ES5_c(ptr noundef nonnull align 8 dereferenceable(8) %50, i8 noundef signext %55)
  br label %57

57:                                               ; preds = %49
  %58 = load i64, ptr %6, align 8
  %59 = add i64 %58, 1
  store i64 %59, ptr %6, align 8
  br label %36, !llvm.loop !6

60:                                               ; preds = %47
  %61 = load ptr, ptr %3, align 8
  %62 = call noundef nonnull align 8 dereferenceable(8) ptr @_ZStlsISt11char_traitsIcEERSt13basic_ostreamIcT_ES5_PKc(ptr noundef nonnull align 8 dereferenceable(8) %61, ptr noundef @.str.8)
  ret ptr %62
}