; Function Attrs: mustprogress uwtable
define hidden noundef nonnull align 8 dereferenceable(8) ptr @_ZlsRSoRK12StringStruct(ptr noundef nonnull align 8 dereferenceable(8) %0, ptr nocapture noundef nonnull readonly align 1 dereferenceable(6) %1) local_unnamed_addr #1 {
  %3 = tail call noundef nonnull align 8 dereferenceable(8) ptr @_ZStlsISt11char_traitsIcEERSt13basic_ostreamIcT_ES5_PKc(ptr noundef nonnull align 8 dereferenceable(8) %0, ptr noundef nonnull @.str.6)
  br label %4

4:                                                ; preds = %2, %7
  %.01820 = phi i64 [ 0, %2 ], [ %9, %7 ]
  %5 = getelementptr inbounds [3 x i8], ptr %1, i64 0, i64 %.01820
  %6 = load i8, ptr %5, align 1
  %.not = icmp eq i8 %6, 0
  br i1 %.not, label %.critedge, label %7

7:                                                ; preds = %4
  %8 = tail call noundef nonnull align 8 dereferenceable(8) ptr @_ZStlsISt11char_traitsIcEERSt13basic_ostreamIcT_ES5_c(ptr noundef nonnull align 8 dereferenceable(8) %0, i8 noundef signext %6)
  %9 = add nuw nsw i64 %.01820, 1
  %exitcond.not = icmp eq i64 %9, 3
  br i1 %exitcond.not, label %.critedge, label %4, !llvm.loop !4

.critedge:                                        ; preds = %7, %4
  %10 = tail call noundef nonnull align 8 dereferenceable(8) ptr @_ZStlsISt11char_traitsIcEERSt13basic_ostreamIcT_ES5_PKc(ptr noundef nonnull align 8 dereferenceable(8) %0, ptr noundef nonnull @.str.7)
  %11 = getelementptr inbounds i8, ptr %1, i64 3
  br label %12

12:                                               ; preds = %.critedge, %15
  %.021 = phi i64 [ 0, %.critedge ], [ %17, %15 ]
  %13 = getelementptr inbounds [3 x i8], ptr %11, i64 0, i64 %.021
  %14 = load i8, ptr %13, align 1
  %.not19 = icmp eq i8 %14, 0
  br i1 %.not19, label %.critedge2, label %15

15:                                               ; preds = %12
  %16 = tail call noundef nonnull align 8 dereferenceable(8) ptr @_ZStlsISt11char_traitsIcEERSt13basic_ostreamIcT_ES5_c(ptr noundef nonnull align 8 dereferenceable(8) %0, i8 noundef signext %14)
  %17 = add nuw nsw i64 %.021, 1
  %exitcond22.not = icmp eq i64 %17, 3
  br i1 %exitcond22.not, label %.critedge2, label %12, !llvm.loop !6

.critedge2:                                       ; preds = %15, %12
  %18 = tail call noundef nonnull align 8 dereferenceable(8) ptr @_ZStlsISt11char_traitsIcEERSt13basic_ostreamIcT_ES5_PKc(ptr noundef nonnull align 8 dereferenceable(8) %0, ptr noundef nonnull @.str.8)
  ret ptr %18
}